target datalayout = "e-m:e-p270:32:32-p271:32:32-p272:64:64-i64:64-i128:128-f80:128-n8:16:32:64-S128"
target triple = "x86_64-unknown-linux-gnu"

%"class.std::basic_string_view" = type { i64, ptr }
%"class.google::protobuf::TextFormat::Printer" = type { i32, i8, i8, i8, i8, i8, i8, i32, i8, i8, i8, i64, %"class.std::unique_ptr", %"class.absl::lts_20230802::flat_hash_map", %"class.absl::lts_20230802::flat_hash_map.14", ptr }
%"class.std::unique_ptr" = type { %"struct.std::__uniq_ptr_data" }
%"struct.std::__uniq_ptr_data" = type { %"class.std::__uniq_ptr_impl" }
%"class.std::__uniq_ptr_impl" = type { %"class.std::tuple" }
%"class.std::tuple" = type { %"struct.std::_Tuple_impl" }
%"struct.std::_Tuple_impl" = type { %"struct.std::_Head_base.3" }
%"struct.std::_Head_base.3" = type { ptr }
%"class.absl::lts_20230802::flat_hash_map" = type { %"class.absl::lts_20230802::container_internal::raw_hash_map" }
%"class.absl::lts_20230802::container_internal::raw_hash_map" = type { %"class.absl::lts_20230802::container_internal::raw_hash_set" }
%"class.absl::lts_20230802::container_internal::raw_hash_set" = type { %"class.absl::lts_20230802::container_internal::CompressedTuple" }
%"class.absl::lts_20230802::container_internal::CompressedTuple" = type { %"struct.absl::lts_20230802::container_internal::internal_compressed_tuple::CompressedTupleImpl" }
%"struct.absl::lts_20230802::container_internal::internal_compressed_tuple::CompressedTupleImpl" = type { %"struct.absl::lts_20230802::container_internal::internal_compressed_tuple::Storage" }
%"struct.absl::lts_20230802::container_internal::internal_compressed_tuple::Storage" = type { %"class.absl::lts_20230802::container_internal::CommonFields" }
%"class.absl::lts_20230802::container_internal::CommonFields" = type { ptr, ptr, i64, %"class.absl::lts_20230802::container_internal::CompressedTuple.4" }
%"class.absl::lts_20230802::container_internal::CompressedTuple.4" = type { %"struct.absl::lts_20230802::container_internal::internal_compressed_tuple::CompressedTupleImpl.5" }
%"struct.absl::lts_20230802::container_internal::internal_compressed_tuple::CompressedTupleImpl.5" = type { %"struct.absl::lts_20230802::container_internal::internal_compressed_tuple::Storage.6" }
%"struct.absl::lts_20230802::container_internal::internal_compressed_tuple::Storage.6" = type { i64 }
%"class.absl::lts_20230802::flat_hash_map.14" = type { %"class.absl::lts_20230802::container_internal::raw_hash_map.15" }
%"class.absl::lts_20230802::container_internal::raw_hash_map.15" = type { %"class.absl::lts_20230802::container_internal::raw_hash_set.16" }
%"class.absl::lts_20230802::container_internal::raw_hash_set.16" = type { %"class.absl::lts_20230802::container_internal::CompressedTuple.17" }
%"class.absl::lts_20230802::container_internal::CompressedTuple.17" = type { %"struct.absl::lts_20230802::container_internal::internal_compressed_tuple::CompressedTupleImpl.18" }
%"struct.absl::lts_20230802::container_internal::internal_compressed_tuple::CompressedTupleImpl.18" = type { %"struct.absl::lts_20230802::container_internal::internal_compressed_tuple::Storage" }
%"class.google::protobuf::FieldDescriptor" = type { %"class.google::protobuf::internal::SymbolBase", i8, i8, i8, i32, ptr, ptr, ptr, ptr, %union.anon.59, %union.anon.60, ptr, ptr, ptr, %union.anon.61 }
%"class.google::protobuf::internal::SymbolBase" = type { i8 }
%union.anon.59 = type { ptr }
%union.anon.60 = type { ptr }
%union.anon.61 = type { i64 }
%"class.google::protobuf::FieldOptions" = type { %"class.google::protobuf::Message", %union.anon.157 }
%"class.google::protobuf::Message" = type { %"class.google::protobuf::MessageLite" }
%"class.google::protobuf::MessageLite" = type { ptr, %"class.google::protobuf::internal::InternalMetadata" }
%"class.google::protobuf::internal::InternalMetadata" = type { i64 }
%union.anon.157 = type { %"struct.google::protobuf::FieldOptions::Impl_" }
%"struct.google::protobuf::FieldOptions::Impl_" = type <{ %"class.google::protobuf::internal::ExtensionSet", %"class.google::protobuf::internal::HasBits", %"class.google::protobuf::internal::CachedSize", %"class.google::protobuf::RepeatedField", %"class.google::protobuf::RepeatedPtrField.158", %"class.google::protobuf::RepeatedPtrField", ptr, i32, i32, i8, i8, i8, i8, i8, i8, [2 x i8], i32, [4 x i8] }>
%"class.google::protobuf::internal::ExtensionSet" = type { ptr, i16, i16, %"union.google::protobuf::internal::ExtensionSet::AllocatedData" }
%"union.google::protobuf::internal::ExtensionSet::AllocatedData" = type { ptr }
%"class.google::protobuf::internal::HasBits" = type { [1 x i32] }
%"class.google::protobuf::internal::CachedSize" = type { i32 }
%"class.google::protobuf::RepeatedField" = type { i32, i32, ptr }
%"class.google::protobuf::RepeatedPtrField.158" = type { %"class.google::protobuf::internal::RepeatedPtrFieldBase" }
%"class.google::protobuf::internal::RepeatedPtrFieldBase" = type { ptr, i32, i32, ptr }
%"class.google::protobuf::RepeatedPtrField" = type { %"class.google::protobuf::internal::RepeatedPtrFieldBase" }

@.str.18 = private unnamed_addr constant [3 x i8] c": \00", align 1
@.str.19 = private unnamed_addr constant [2 x i8] c" \00", align 1
@.str.20 = private unnamed_addr constant [2 x i8] c"\0A\00", align 1
@_ZN6google8protobuf12_GLOBAL__N_122kFieldValueReplacementE = internal constant %"class.std::basic_string_view" { i64 10, ptr @.str.119 }, align 8
@_ZN6google8protobuf12_GLOBAL__N_118num_redacted_fieldE = internal global { i64 } zeroinitializer, align 8

; Function Attrs: mustprogress nounwind uwtable
define linkonce_odr hidden noundef zeroext i1 @_ZNK6google8protobuf12FieldOptions22_internal_debug_redactEv(ptr noundef nonnull align 8 dereferenceable(144) %this) #4 comdat align 2 {
entry:
  %this.addr = alloca ptr, align 8
  store ptr %this, ptr %this.addr, align 8
  %this1 = load ptr, ptr %this.addr, align 8
  %0 = getelementptr inbounds %"class.google::protobuf::FieldOptions", ptr %this1, i32 0, i32 1
  %debug_redact_ = getelementptr inbounds %"struct.google::protobuf::FieldOptions::Impl_", ptr %0, i32 0, i32 14
  %1 = load i8, ptr %debug_redact_, align 1
  %tobool = trunc i8 %1 to i1
  ret i1 %tobool
}

; Function Attrs: mustprogress nounwind uwtable
define linkonce_odr hidden noundef i64 @_ZNKSt17basic_string_viewIcSt11char_traitsIcEE4sizeEv(ptr noundef nonnull align 8 dereferenceable(16) %this) #4 comdat align 2 {
entry:
  %this.addr = alloca ptr, align 8
  store ptr %this, ptr %this.addr, align 8
  %this1 = load ptr, ptr %this.addr, align 8
  %_M_len = getelementptr inbounds %"class.std::basic_string_view", ptr %this1, i32 0, i32 0
  %0 = load i64, ptr %_M_len, align 8
  ret i64 %0
}

; Function Attrs: mustprogress nounwind uwtable
define linkonce_odr hidden noundef ptr @_ZNKSt17basic_string_viewIcSt11char_traitsIcEE4dataEv(ptr noundef nonnull align 8 dereferenceable(16) %this) #4 comdat align 2 {
entry:
  %this.addr = alloca ptr, align 8
  store ptr %this, ptr %this.addr, align 8
  %this1 = load ptr, ptr %this.addr, align 8
  %_M_str = getelementptr inbounds %"class.std::basic_string_view", ptr %this1, i32 0, i32 1
  %0 = load ptr, ptr %_M_str, align 8
  ret ptr %0
}

; Function Attrs: noreturn nounwind uwtable
define linkonce_odr hidden void @__clang_call_terminate(ptr noundef %0) #14 comdat {
  %2 = call ptr @__cxa_begin_catch(ptr %0) #3
  call void @_ZSt9terminatev() #23
  unreachable
}

; Function Attrs: mustprogress nounwind uwtable
define linkonce_odr hidden noundef i64 @_ZNSt11char_traitsIcE6lengthEPKc(ptr noundef %__s) #4 comdat align 2 {
entry:
  %__s.addr = alloca ptr, align 8
  store ptr %__s, ptr %__s.addr, align 8
  %0 = load ptr, ptr %__s.addr, align 8
  %call = call i64 @strlen(ptr noundef %0) #3
  ret i64 %call
}

; Function Attrs: mustprogress uwtable
define linkonce_odr hidden noundef zeroext i1 @_ZNK6google8protobuf12FieldOptions12debug_redactEv(ptr noundef nonnull align 8 dereferenceable(144) %this) #5 comdat align 2 {
entry:
  %this.addr = alloca ptr, align 8
  store ptr %this, ptr %this.addr, align 8
  %this1 = load ptr, ptr %this.addr, align 8
  %call = call noundef zeroext i1 @_ZNK6google8protobuf12FieldOptions22_internal_debug_redactEv(ptr noundef nonnull align 8 dereferenceable(144) %this1)
  ret i1 %call
}

; Function Attrs: mustprogress nounwind uwtable
define linkonce_odr hidden noundef nonnull align 8 dereferenceable(144) ptr @_ZNK6google8protobuf15FieldDescriptor7optionsEv(ptr noundef nonnull align 8 dereferenceable(88) %this) #4 comdat align 2 {
entry:
  %this.addr = alloca ptr, align 8
  store ptr %this, ptr %this.addr, align 8
  %this1 = load ptr, ptr %this.addr, align 8
  %options_ = getelementptr inbounds %"class.google::protobuf::FieldDescriptor", ptr %this1, i32 0, i32 11
  %0 = load ptr, ptr %options_, align 8
  ret ptr %0
}

; Function Attrs: mustprogress uwtable
define linkonce_odr hidden void @_ZN6google8protobuf10TextFormat17BaseTextGenerator12PrintLiteralILm2EEEvRAT__Kc(ptr noundef nonnull align 8 dereferenceable(8) %this, ptr noundef nonnull align 1 dereferenceable(2) %text) #5 comdat align 2 {
entry:
  %this.addr = alloca ptr, align 8
  %text.addr = alloca ptr, align 8
  store ptr %this, ptr %this.addr, align 8
  store ptr %text, ptr %text.addr, align 8
  %this1 = load ptr, ptr %this.addr, align 8
  %0 = load ptr, ptr %text.addr, align 8
  %arraydecay = getelementptr inbounds [2 x i8], ptr %0, i64 0, i64 0
  %vtable = load ptr, ptr %this1, align 8
  %vfn = getelementptr inbounds ptr, ptr %vtable, i64 5
  %1 = load ptr, ptr %vfn, align 8
  call void %1(ptr noundef nonnull align 8 dereferenceable(8) %this1, ptr noundef %arraydecay, i64 noundef 1)
  ret void
}

; Function Attrs: mustprogress uwtable
define linkonce_odr hidden void @_ZN6google8protobuf10TextFormat17BaseTextGenerator11PrintStringESt17basic_string_viewIcSt11char_traitsIcEE(ptr noundef nonnull align 8 dereferenceable(8) %this, i64 %str.coerce0, ptr %str.coerce1) #5 comdat align 2 {
entry:
  %str = alloca %"class.std::basic_string_view", align 8
  %this.addr = alloca ptr, align 8
  %0 = getelementptr inbounds { i64, ptr }, ptr %str, i32 0, i32 0
  store i64 %str.coerce0, ptr %0, align 8
  %1 = getelementptr inbounds { i64, ptr }, ptr %str, i32 0, i32 1
  store ptr %str.coerce1, ptr %1, align 8
  store ptr %this, ptr %this.addr, align 8
  %this1 = load ptr, ptr %this.addr, align 8
  %call = call noundef ptr @_ZNKSt17basic_string_viewIcSt11char_traitsIcEE4dataEv(ptr noundef nonnull align 8 dereferenceable(16) %str) #3
  %call2 = call noundef i64 @_ZNKSt17basic_string_viewIcSt11char_traitsIcEE4sizeEv(ptr noundef nonnull align 8 dereferenceable(16) %str) #3
  %vtable = load ptr, ptr %this1, align 8
  %vfn = getelementptr inbounds ptr, ptr %vtable, i64 5
  %2 = load ptr, ptr %vfn, align 8
  call void %2(ptr noundef nonnull align 8 dereferenceable(8) %this1, ptr noundef %call, i64 noundef %call2)
  ret void
}

; Function Attrs: mustprogress nounwind uwtable
define linkonce_odr hidden void @_ZNSt17basic_string_viewIcSt11char_traitsIcEEC2EPKc(ptr noundef nonnull align 8 dereferenceable(16) %this, ptr noundef nonnull %__str) unnamed_addr #4 comdat align 2 personality ptr @__gxx_personality_v0 {
entry:
  %this.addr = alloca ptr, align 8
  %__str.addr = alloca ptr, align 8
  store ptr %this, ptr %this.addr, align 8
  store ptr %__str, ptr %__str.addr, align 8
  %this1 = load ptr, ptr %this.addr, align 8
  %_M_len = getelementptr inbounds %"class.std::basic_string_view", ptr %this1, i32 0, i32 0
  %0 = load ptr, ptr %__str.addr, align 8
  %call = invoke noundef i64 @_ZNSt11char_traitsIcE6lengthEPKc(ptr noundef %0)
          to label %invoke.cont unwind label %terminate.lpad

invoke.cont:                                      ; preds = %entry
  store i64 %call, ptr %_M_len, align 8
  %_M_str = getelementptr inbounds %"class.std::basic_string_view", ptr %this1, i32 0, i32 1
  %1 = load ptr, ptr %__str.addr, align 8
  store ptr %1, ptr %_M_str, align 8
  ret void

terminate.lpad:                                   ; preds = %entry
  %2 = landingpad { ptr, i32 }
          catch ptr null
  %3 = extractvalue { ptr, i32 } %2, 0
  call void @__clang_call_terminate(ptr %3) #23
  unreachable
}

; Function Attrs: mustprogress nounwind uwtable
define internal void @_ZN6google8protobuf12_GLOBAL__N_129IncrementRedactedFieldCounterEv() #4 {
entry:
  %this.addr.i = alloca ptr, align 8
  %__i.addr.i = alloca i64, align 8
  %__m.addr.i = alloca i32, align 4
  %.atomictmp.i = alloca i64, align 8
  %atomic-temp.i = alloca i64, align 8
  store ptr @_ZN6google8protobuf12_GLOBAL__N_118num_redacted_fieldE, ptr %this.addr.i, align 8
  store i64 1, ptr %__i.addr.i, align 8
  store i32 0, ptr %__m.addr.i, align 4
  %this1.i = load ptr, ptr %this.addr.i, align 8
  %0 = load i32, ptr %__m.addr.i, align 4
  %1 = load i64, ptr %__i.addr.i, align 8
  store i64 %1, ptr %.atomictmp.i, align 8
  switch i32 %0, label %monotonic.i [
    i32 1, label %acquire.i
    i32 2, label %acquire.i
    i32 3, label %release.i
    i32 4, label %acqrel.i
    i32 5, label %seqcst.i
  ]

monotonic.i:                                      ; preds = %entry
  %2 = load i64, ptr %.atomictmp.i, align 8
  %3 = atomicrmw add ptr %this1.i, i64 %2 monotonic, align 8
  store i64 %3, ptr %atomic-temp.i, align 8
  br label %_ZNSt13__atomic_baseIlE9fetch_addElSt12memory_order.exit

acquire.i:                                        ; preds = %entry, %entry
  %4 = load i64, ptr %.atomictmp.i, align 8
  %5 = atomicrmw add ptr %this1.i, i64 %4 acquire, align 8
  store i64 %5, ptr %atomic-temp.i, align 8
  br label %_ZNSt13__atomic_baseIlE9fetch_addElSt12memory_order.exit

release.i:                                        ; preds = %entry
  %6 = load i64, ptr %.atomictmp.i, align 8
  %7 = atomicrmw add ptr %this1.i, i64 %6 release, align 8
  store i64 %7, ptr %atomic-temp.i, align 8
  br label %_ZNSt13__atomic_baseIlE9fetch_addElSt12memory_order.exit

acqrel.i:                                         ; preds = %entry
  %8 = load i64, ptr %.atomictmp.i, align 8
  %9 = atomicrmw add ptr %this1.i, i64 %8 acq_rel, align 8
  store i64 %9, ptr %atomic-temp.i, align 8
  br label %_ZNSt13__atomic_baseIlE9fetch_addElSt12memory_order.exit

seqcst.i:                                         ; preds = %entry
  %10 = load i64, ptr %.atomictmp.i, align 8
  %11 = atomicrmw add ptr %this1.i, i64 %10 seq_cst, align 8
  store i64 %11, ptr %atomic-temp.i, align 8
  br label %_ZNSt13__atomic_baseIlE9fetch_addElSt12memory_order.exit

_ZNSt13__atomic_baseIlE9fetch_addElSt12memory_order.exit: ; preds = %seqcst.i, %acqrel.i, %release.i, %acquire.i, %monotonic.i
  ret void
}

; Function Attrs: mustprogress uwtable
define noundef zeroext i1 @_ZN6google8protobuf8internal17ShouldRedactFieldEPKNS0_15FieldDescriptorE(ptr noundef %field) #5 {
entry:
  %retval = alloca i1, align 1
  %field.addr = alloca ptr, align 8
  store ptr %field, ptr %field.addr, align 8
  %0 = load ptr, ptr %field.addr, align 8
  %call = call noundef nonnull align 8 dereferenceable(144) ptr @_ZNK6google8protobuf15FieldDescriptor7optionsEv(ptr noundef nonnull align 8 dereferenceable(88) %0)
  %call1 = call noundef zeroext i1 @_ZNK6google8protobuf12FieldOptions12debug_redactEv(ptr noundef nonnull align 8 dereferenceable(144) %call)
  br i1 %call1, label %if.then, label %if.end

if.then:                                          ; preds = %entry
  store i1 true, ptr %retval, align 1
  br label %return

if.end:                                           ; preds = %entry
  store i1 false, ptr %retval, align 1
  br label %return

return:                                           ; preds = %if.end, %if.then
  %1 = load i1, ptr %retval, align 1
  ret i1 %1
}

; Function Attrs: mustprogress uwtable
define noundef zeroext i1 @_ZNK6google8protobuf10TextFormat7Printer19TryRedactFieldValueERKNS0_7MessageEPKNS0_15FieldDescriptorEPNS1_17BaseTextGeneratorEb(ptr noundef nonnull align 8 dereferenceable(112) %this, ptr noundef nonnull align 8 dereferenceable(16) %message, ptr noundef %field, ptr noundef %generator, i1 noundef zeroext %insert_value_separator) #5 align 2 {
entry:
  %retval = alloca i1, align 1
  %this.addr = alloca ptr, align 8
  %message.addr = alloca ptr, align 8
  %field.addr = alloca ptr, align 8
  %generator.addr = alloca ptr, align 8
  %insert_value_separator.addr = alloca i8, align 1
  %agg.tmp5 = alloca %"class.std::basic_string_view", align 8
  %agg.tmp6 = alloca %"class.std::basic_string_view", align 8
  store ptr %this, ptr %this.addr, align 8
  store ptr %message, ptr %message.addr, align 8
  store ptr %field, ptr %field.addr, align 8
  store ptr %generator, ptr %generator.addr, align 8
  %frombool = zext i1 %insert_value_separator to i8
  store i8 %frombool, ptr %insert_value_separator.addr, align 1
  %this1 = load ptr, ptr %this.addr, align 8
  %0 = load ptr, ptr %field.addr, align 8
  %call = call noundef zeroext i1 @_ZN6google8protobuf8internal17ShouldRedactFieldEPKNS0_15FieldDescriptorE(ptr noundef %0)
  br i1 %call, label %if.then, label %if.end14

if.then:                                          ; preds = %entry
  %redact_debug_string_ = getelementptr inbounds %"class.google::protobuf::TextFormat::Printer", ptr %this1, i32 0, i32 5
  %1 = load i8, ptr %redact_debug_string_, align 8
  %tobool = trunc i8 %1 to i1
  br i1 %tobool, label %if.then2, label %if.end13

if.then2:                                         ; preds = %if.then
  call void @_ZN6google8protobuf12_GLOBAL__N_129IncrementRedactedFieldCounterEv()
  %2 = load i8, ptr %insert_value_separator.addr, align 1
  %tobool3 = trunc i8 %2 to i1
  br i1 %tobool3, label %if.then4, label %if.end

if.then4:                                         ; preds = %if.then2
  %3 = load ptr, ptr %generator.addr, align 8
  call void @_ZNSt17basic_string_viewIcSt11char_traitsIcEEC2EPKc(ptr noundef nonnull align 8 dereferenceable(16) %agg.tmp5, ptr noundef @.str.18) #3
  %4 = getelementptr inbounds { i64, ptr }, ptr %agg.tmp5, i32 0, i32 0
  %5 = load i64, ptr %4, align 8
  %6 = getelementptr inbounds { i64, ptr }, ptr %agg.tmp5, i32 0, i32 1
  %7 = load ptr, ptr %6, align 8
  %vtable = load ptr, ptr %3, align 8
  %vfn = getelementptr inbounds ptr, ptr %vtable, i64 6
  %8 = load ptr, ptr %vfn, align 8
  call void %8(ptr noundef nonnull align 8 dereferenceable(8) %3, i64 %5, ptr %7)
  br label %if.end

if.end:                                           ; preds = %if.then4, %if.then2
  %9 = load ptr, ptr %generator.addr, align 8
  call void @llvm.memcpy.p0.p0.i64(ptr align 8 %agg.tmp6, ptr align 8 @_ZN6google8protobuf12_GLOBAL__N_122kFieldValueReplacementE, i64 16, i1 false)
  %10 = getelementptr inbounds { i64, ptr }, ptr %agg.tmp6, i32 0, i32 0
  %11 = load i64, ptr %10, align 8
  %12 = getelementptr inbounds { i64, ptr }, ptr %agg.tmp6, i32 0, i32 1
  %13 = load ptr, ptr %12, align 8
  call void @_ZN6google8protobuf10TextFormat17BaseTextGenerator11PrintStringESt17basic_string_viewIcSt11char_traitsIcEE(ptr noundef nonnull align 8 dereferenceable(8) %9, i64 %11, ptr %13)
  %14 = load i8, ptr %insert_value_separator.addr, align 1
  %tobool7 = trunc i8 %14 to i1
  br i1 %tobool7, label %if.then8, label %if.end12

if.then8:                                         ; preds = %if.end
  %single_line_mode_ = getelementptr inbounds %"class.google::protobuf::TextFormat::Printer", ptr %this1, i32 0, i32 1
  %15 = load i8, ptr %single_line_mode_, align 4
  %tobool9 = trunc i8 %15 to i1
  br i1 %tobool9, label %if.then10, label %if.else

if.then10:                                        ; preds = %if.then8
  %16 = load ptr, ptr %generator.addr, align 8
  call void @_ZN6google8protobuf10TextFormat17BaseTextGenerator12PrintLiteralILm2EEEvRAT__Kc(ptr noundef nonnull align 8 dereferenceable(8) %16, ptr noundef nonnull align 1 dereferenceable(2) @.str.19)
  br label %if.end11

if.else:                                          ; preds = %if.then8
  %17 = load ptr, ptr %generator.addr, align 8
  call void @_ZN6google8protobuf10TextFormat17BaseTextGenerator12PrintLiteralILm2EEEvRAT__Kc(ptr noundef nonnull align 8 dereferenceable(8) %17, ptr noundef nonnull align 1 dereferenceable(2) @.str.20)
  br label %if.end11

if.end11:                                         ; preds = %if.else, %if.then10
  br label %if.end12

if.end12:                                         ; preds = %if.end11, %if.end
  store i1 true, ptr %retval, align 1
  br label %return

if.end13:                                         ; preds = %if.then
  br label %if.end14

if.end14:                                         ; preds = %if.end13, %entry
  store i1 false, ptr %retval, align 1
  br label %return

return:                                           ; preds = %if.end14, %if.end12
  %18 = load i1, ptr %retval, align 1
  ret i1 %18
}