; Function Attrs: mustprogress uwtable
define noundef zeroext i1 @_ZNK6google8protobuf10TextFormat7Printer19TryRedactFieldValueERKNS0_7MessageEPKNS0_15FieldDescriptorEPNS1_17BaseTextGeneratorEb(ptr nocapture noundef nonnull readonly align 8 dereferenceable(112) %this, ptr nocapture noundef nonnull readnone align 8 dereferenceable(16) %message, ptr nocapture noundef readonly %field, ptr noundef %generator, i1 noundef zeroext %insert_value_separator) local_unnamed_addr #4 align 2 personality ptr @__gxx_personality_v0 {
entry:
  %options_.i.i = getelementptr inbounds i8, ptr %field, i64 56
  %0 = load ptr, ptr %options_.i.i, align 8
  %debug_redact_.i.i.i = getelementptr inbounds i8, ptr %0, i64 133
  %1 = load i8, ptr %debug_redact_.i.i.i, align 1
  %2 = and i8 %1, 1
  %tobool.i.i.i.not = icmp eq i8 %2, 0
  br i1 %tobool.i.i.i.not, label %return, label %if.then

if.then:                                          ; preds = %entry
  %redact_debug_string_ = getelementptr inbounds i8, ptr %this, i64 8
  %3 = load i8, ptr %redact_debug_string_, align 8
  %4 = and i8 %3, 1
  %tobool.not = icmp eq i8 %4, 0
  br i1 %tobool.not, label %return, label %if.then2

if.then2:                                         ; preds = %if.then
  %5 = atomicrmw add ptr @_ZN6google8protobuf12_GLOBAL__N_118num_redacted_fieldE, i64 1 monotonic, align 8
  %vtable = load ptr, ptr %generator, align 8
  br i1 %insert_value_separator, label %if.then4, label %if.end12.critedge

if.then4:                                         ; preds = %if.then2
  %vfn = getelementptr inbounds i8, ptr %vtable, i64 48
  %6 = load ptr, ptr %vfn, align 8
  tail call void %6(ptr noundef nonnull align 8 dereferenceable(8) %generator, i64 2, ptr nonnull @.str.18)
  %vtable.i = load ptr, ptr %generator, align 8
  %vfn.i = getelementptr inbounds i8, ptr %vtable.i, i64 40
  %7 = load ptr, ptr %vfn.i, align 8
  tail call void %7(ptr noundef nonnull align 8 dereferenceable(8) %generator, ptr noundef nonnull @.str.119, i64 noundef 10)
  %single_line_mode_ = getelementptr inbounds i8, ptr %this, i64 4
  %8 = load i8, ptr %single_line_mode_, align 4
  %9 = and i8 %8, 1
  %tobool9.not = icmp eq i8 %9, 0
  %vtable.i7 = load ptr, ptr %generator, align 8
  %vfn.i8 = getelementptr inbounds i8, ptr %vtable.i7, i64 40
  %10 = load ptr, ptr %vfn.i8, align 8
  br i1 %tobool9.not, label %if.else, label %if.then10

if.then10:                                        ; preds = %if.then4
  tail call void %10(ptr noundef nonnull align 8 dereferenceable(8) %generator, ptr noundef nonnull @.str.19, i64 noundef 1)
  br label %return

if.else:                                          ; preds = %if.then4
  tail call void %10(ptr noundef nonnull align 8 dereferenceable(8) %generator, ptr noundef nonnull @.str.20, i64 noundef 1)
  br label %return

if.end12.critedge:                                ; preds = %if.then2
  %vfn.i10 = getelementptr inbounds i8, ptr %vtable, i64 40
  %11 = load ptr, ptr %vfn.i10, align 8
  tail call void %11(ptr noundef nonnull align 8 dereferenceable(8) %generator, ptr noundef nonnull @.str.119, i64 noundef 10)
  br label %return

return:                                           ; preds = %entry, %if.then, %if.else, %if.then10, %if.end12.critedge
  %retval.0 = phi i1 [ true, %if.end12.critedge ], [ true, %if.then10 ], [ true, %if.else ], [ false, %if.then ], [ false, %entry ]
  ret i1 %retval.0
}